(dp0
S'2016-12-30'
p1
(lp2
V603823
p3
aV603159
p4
aV600249
p5
aV600209
p6
aV300417
p7
aV002832
p8
aV002591
p9
asS'2017-01-10'
p10
(lp11
V603886
p12
aV603319
p13
aV601375
p14
aV600865
p15
aV600814
p16
aV600425
p17
aV600421
p18
aV600239
p19
aV600148
p20
aV300571
p21
aV300480
p22
aV300447
p23
aV300402
p24
aV300323
p25
aV300243
p26
aV002829
p27
aV002761
p28
aV002755
p29
aV002752
p30
aV002697
p31
aV002679
p32
aV002539
p33
aV002265
p34
aV000993
p35
aV000953
p36
aV000791
p37
aV000722
p38
aV000595
p39
asS'2017-01-17'
p40
(lp41
V603977
p42
aV603689
p43
aV603639
p44
aV603579
p45
aV603060
p46
aV603035
p47
aV600698
p48
aV300585
p49
aV300579
p50
aV300562
p51
aV300528
p52
ag22
aV300443
p53
aV300411
p54
ag24
aV300399
p55
aV300383
p56
aV300380
p57
ag25
aV300311
p58
aV300303
p59
aV300184
p60
aV300104
p61
aV002838
p62
aV002825
p63
ag29
ag30
aV002651
p64
aV002388
p65
aV002302
p66
aV002287
p67
ag34
aV002253
p68
aV002045
p69
aV002012
p70
aV000980
p71
aV000931
p72
ag39
asS'2017-01-16'
p73
(lp74
g43
ag47
aV600680
p75
aV600480
p76
aV600207
p77
ag49
ag64
aV002553
p78
ag67
asS'2017-01-04'
p79
(lp80
V603988
p81
ag3
aV603779
p82
aV603298
p83
aV603218
p84
aV600810
p85
aV600800
p86
ag48
ag75
aV600571
p87
aV600416
p88
ag5
aV600215
p89
ag6
aV600183
p90
aV300503
p91
ag24
aV300340
p92
aV300304
p93
ag26
aV300219
p94
aV300175
p95
aV300130
p96
aV300073
p97
aV002709
p98
aV002703
p99
aV002300
p100
aV002297
p101
aV002245
p102
aV000885
p103
aV000755
p104
aV000695
p105
aV000678
p106
ag39
aV000585
p107
aV000045
p108
aV000026
p109
aV000017
p110
asS'2017-01-06'
p111
(lp112
V600262
p113
ag5
ag20
aV300581
p114
aV300172
p115
aV300152
p116
aV002817
p117
aV002654
p118
aV002483
p119
aV002346
p120
ag100
ag34
aV000897
p121
aV000822
p122
aV000524
p123
asS'2017-01-12'
p124
(lp125
V603058
p126
ag47
aV600692
p127
aV600381
p128
aV600322
p129
aV300546
p130
ag22
aV300466
p131
ag29
aV002753
p132
ag35
aV000723
p133
aV000619
p134
aV000520
p135
asS'2017-01-13'
p136
(lp137
V600696
p138
aV600576
p139
aV002833
p140
ag65
ag100
ag34
aV002034
p141
asS'2017-01-03'
p142
(lp143
g3
ag82
aV603389
p144
ag4
aV600996
p145
ag48
ag5
ag6
aV600099
p146
aV300561
p147
ag24
aV002813
p148
aV002277
p149
aV002140
p150
aV002071
p151
aV000922
p152
ag108
asS'2017-01-11'
p153
(lp154
g12
aV601137
p155
ag18
aV300510
p156
aV300353
p157
aV002811
p158
aV002735
p159
ag66
ag68
aV000837
p160
aV000825
p161
asS'2017-01-05'
p162
(lp163
g13
aV600877
p164
ag48
ag75
aV600243
p165
aV600125
p166
aV600119
p167
ag22
ag24
aV300381
p168
ag60
aV300044
p169
aV002767
p170
ag31
aV002561
p171
aV002484
p172
ag119
aV002461
p173
ag100
aV002246
p174
aV000985
p175
aV000906
p176
aV000780
p177
aV000554
p178
aV000553
p179
aV000032
p180
asS'2017-01-09'
p181
(lp182
V601999
p183
aV601678
p184
aV600966
p185
ag16
ag48
aV600435
p186
aV600178
p187
ag20
aV300427
p188
ag24
ag99
aV002702
p189
ag34
ag174
aV002189
p190
aV000987
p191
as.